target datalayout = "e-m:e-p270:32:32-p271:32:32-p272:64:64-i64:64-i128:128-f80:128-n8:16:32:64-S128"
target triple = "x86_64-pc-linux-gnu"

%struct.PaUtilAllocationGroup = type { i64, ptr, ptr, ptr }
%struct.PaUtilAllocationGroupLink = type { ptr, ptr }

; Function Attrs: nounwind uwtable
define void @PaUtil_FreeAllAllocations(ptr noundef %0) #0 {
  %2 = alloca ptr, align 8
  %3 = alloca ptr, align 8
  %4 = alloca ptr, align 8
  store ptr %0, ptr %2, align 8, !tbaa !3
  call void @llvm.lifetime.start.p0(i64 8, ptr %3) #3
  %5 = load ptr, ptr %2, align 8, !tbaa !3
  %6 = getelementptr inbounds nuw %struct.PaUtilAllocationGroup, ptr %5, i32 0, i32 3
  %7 = load ptr, ptr %6, align 8, !tbaa !14
  store ptr %7, ptr %3, align 8, !tbaa !7
  call void @llvm.lifetime.start.p0(i64 8, ptr %4) #3
  store ptr null, ptr %4, align 8, !tbaa !7
  br label %8

8:                                                ; preds = %11, %1
  %9 = load ptr, ptr %3, align 8, !tbaa !7
  %10 = icmp ne ptr %9, null
  br i1 %10, label %11, label %21

11:                                               ; preds = %8
  %12 = load ptr, ptr %3, align 8, !tbaa !7
  %13 = getelementptr inbounds nuw %struct.PaUtilAllocationGroupLink, ptr %12, i32 0, i32 1
  %14 = load ptr, ptr %13, align 8, !tbaa !16
  call void @PaUtil_FreeMemory(ptr noundef %14)
  %15 = load ptr, ptr %3, align 8, !tbaa !7
  %16 = getelementptr inbounds nuw %struct.PaUtilAllocationGroupLink, ptr %15, i32 0, i32 1
  store ptr null, ptr %16, align 8, !tbaa !16
  %17 = load ptr, ptr %3, align 8, !tbaa !7
  store ptr %17, ptr %4, align 8, !tbaa !7
  %18 = load ptr, ptr %3, align 8, !tbaa !7
  %19 = getelementptr inbounds nuw %struct.PaUtilAllocationGroupLink, ptr %18, i32 0, i32 0
  %20 = load ptr, ptr %19, align 8, !tbaa !18
  store ptr %20, ptr %3, align 8, !tbaa !7
  br label %8, !llvm.loop !25

21:                                               ; preds = %8
  %22 = load ptr, ptr %4, align 8, !tbaa !7
  %23 = icmp ne ptr %22, null
  br i1 %23, label %24, label %37

24:                                               ; preds = %21
  %25 = load ptr, ptr %2, align 8, !tbaa !3
  %26 = getelementptr inbounds nuw %struct.PaUtilAllocationGroup, ptr %25, i32 0, i32 2
  %27 = load ptr, ptr %26, align 8, !tbaa !13
  %28 = load ptr, ptr %4, align 8, !tbaa !7
  %29 = getelementptr inbounds nuw %struct.PaUtilAllocationGroupLink, ptr %28, i32 0, i32 0
  store ptr %27, ptr %29, align 8, !tbaa !18
  %30 = load ptr, ptr %2, align 8, !tbaa !3
  %31 = getelementptr inbounds nuw %struct.PaUtilAllocationGroup, ptr %30, i32 0, i32 3
  %32 = load ptr, ptr %31, align 8, !tbaa !14
  %33 = load ptr, ptr %2, align 8, !tbaa !3
  %34 = getelementptr inbounds nuw %struct.PaUtilAllocationGroup, ptr %33, i32 0, i32 2
  store ptr %32, ptr %34, align 8, !tbaa !13
  %35 = load ptr, ptr %2, align 8, !tbaa !3
  %36 = getelementptr inbounds nuw %struct.PaUtilAllocationGroup, ptr %35, i32 0, i32 3
  store ptr null, ptr %36, align 8, !tbaa !14
  br label %37

37:                                               ; preds = %24, %21
  call void @llvm.lifetime.end.p0(i64 8, ptr %4) #3
  call void @llvm.lifetime.end.p0(i64 8, ptr %3) #3
  ret void
}