; Function Attrs: nounwind uwtable
define void @PaUtil_FreeAllAllocations(ptr noundef captures(none) %0) local_unnamed_addr #0 {
  %2 = getelementptr inbounds nuw i8, ptr %0, i64 24
  %.01214 = load ptr, ptr %2, align 8, !tbaa !19
  %.not15 = icmp eq ptr %.01214, null
  br i1 %.not15, label %._crit_edge.thread, label %.lr.ph

.lr.ph:                                           ; preds = %1, %.lr.ph
  %.01216 = phi ptr [ %.012, %.lr.ph ], [ %.01214, %1 ]
  %3 = getelementptr inbounds nuw i8, ptr %.01216, i64 8
  %4 = load ptr, ptr %3, align 8, !tbaa !3
  tail call void @PaUtil_FreeMemory(ptr noundef %4) #2
  store ptr null, ptr %3, align 8, !tbaa !3
  %.012 = load ptr, ptr %.01216, align 8, !tbaa !19
  %.not = icmp eq ptr %.012, null
  br i1 %.not, label %._crit_edge, label %.lr.ph, !llvm.loop !21

._crit_edge:                                      ; preds = %.lr.ph
  %5 = getelementptr inbounds nuw i8, ptr %0, i64 16
  %6 = load ptr, ptr %5, align 8, !tbaa !16
  store ptr %6, ptr %.01216, align 8, !tbaa !9
  %7 = load ptr, ptr %2, align 8, !tbaa !17
  store ptr %7, ptr %5, align 8, !tbaa !16
  store ptr null, ptr %2, align 8, !tbaa !17
  br label %._crit_edge.thread

._crit_edge.thread:                               ; preds = %1, %._crit_edge
  ret void
}